; Function Attrs: nounwind sspstrong uwtable
define internal range(i64 0, 21) i64 @ancillary_cmsg_is_p(i64 noundef %0, i64 noundef %1, i64 noundef %2) #0 {
  %.pr.i.i = load i64, ptr @ancillary_family.rbimpl_id, align 8, !tbaa !6
  %.not4.i.i = icmp eq i64 %.pr.i.i, 0
  br i1 %.not4.i.i, label %.lr.ph.i.i, label %rbimpl_intern_const.exit.i

.lr.ph.i.i:                                       ; preds = %3, %.lr.ph.i.i
  %4 = tail call i64 @rb_intern2(ptr noundef nonnull @.str.3, i64 noundef 6) #10
  store i64 %4, ptr @ancillary_family.rbimpl_id, align 8, !tbaa !6
  %.not.i.i = icmp eq i64 %4, 0
  br i1 %.not.i.i, label %.lr.ph.i.i, label %rbimpl_intern_const.exit.i, !llvm.loop !17

rbimpl_intern_const.exit.i:                       ; preds = %.lr.ph.i.i, %3
  %.lcssa.i.i = phi i64 [ %.pr.i.i, %3 ], [ %4, %.lr.ph.i.i ]
  %5 = tail call i64 @rb_attr_get(i64 noundef %0, i64 noundef %.lcssa.i.i) #10
  %6 = and i64 %5, 1
  %.not.i3.i = icmp eq i64 %6, 0
  br i1 %.not.i3.i, label %9, label %7

7:                                                ; preds = %rbimpl_intern_const.exit.i
  %8 = tail call i64 @rb_fix2int(i64 noundef %5) #10
  br label %ancillary_family.exit

9:                                                ; preds = %rbimpl_intern_const.exit.i
  %10 = tail call i64 @rb_num2int(i64 noundef %5) #10
  br label %ancillary_family.exit

ancillary_family.exit:                            ; preds = %7, %9
  %.0.i.i = phi i64 [ %8, %7 ], [ %10, %9 ]
  %11 = trunc i64 %.0.i.i to i32
  %12 = tail call i32 @rsock_level_arg(i32 noundef %11, i64 noundef %1) #10
  %13 = tail call i32 @rsock_cmsg_type_arg(i32 noundef %11, i32 noundef %12, i64 noundef %2) #10
  %.pr.i.i11 = load i64, ptr @ancillary_level.rbimpl_id, align 8, !tbaa !6
  %.not4.i.i12 = icmp eq i64 %.pr.i.i11, 0
  br i1 %.not4.i.i12, label %.lr.ph.i.i17, label %rbimpl_intern_const.exit.i13

.lr.ph.i.i17:                                     ; preds = %ancillary_family.exit, %.lr.ph.i.i17
  %14 = tail call i64 @rb_intern2(ptr noundef nonnull @.str.4, i64 noundef 5) #10
  store i64 %14, ptr @ancillary_level.rbimpl_id, align 8, !tbaa !6
  %.not.i.i18 = icmp eq i64 %14, 0
  br i1 %.not.i.i18, label %.lr.ph.i.i17, label %rbimpl_intern_const.exit.i13, !llvm.loop !17

rbimpl_intern_const.exit.i13:                     ; preds = %.lr.ph.i.i17, %ancillary_family.exit
  %.lcssa.i.i14 = phi i64 [ %.pr.i.i11, %ancillary_family.exit ], [ %14, %.lr.ph.i.i17 ]
  %15 = tail call i64 @rb_attr_get(i64 noundef %0, i64 noundef %.lcssa.i.i14) #10
  %16 = and i64 %15, 1
  %.not.i3.i15 = icmp eq i64 %16, 0
  br i1 %.not.i3.i15, label %19, label %17

17:                                               ; preds = %rbimpl_intern_const.exit.i13
  %18 = tail call i64 @rb_fix2int(i64 noundef %15) #10
  br label %ancillary_level.exit

19:                                               ; preds = %rbimpl_intern_const.exit.i13
  %20 = tail call i64 @rb_num2int(i64 noundef %15) #10
  br label %ancillary_level.exit

ancillary_level.exit:                             ; preds = %17, %19
  %.0.i.i16 = phi i64 [ %18, %17 ], [ %20, %19 ]
  %21 = trunc i64 %.0.i.i16 to i32
  %22 = icmp eq i32 %12, %21
  br i1 %22, label %23, label %33

23:                                               ; preds = %ancillary_level.exit
  %.pr.i.i19 = load i64, ptr @ancillary_type.rbimpl_id, align 8, !tbaa !6
  %.not4.i.i20 = icmp eq i64 %.pr.i.i19, 0
  br i1 %.not4.i.i20, label %.lr.ph.i.i25, label %rbimpl_intern_const.exit.i21

.lr.ph.i.i25:                                     ; preds = %23, %.lr.ph.i.i25
  %24 = tail call i64 @rb_intern2(ptr noundef nonnull @.str.5, i64 noundef 4) #10
  store i64 %24, ptr @ancillary_type.rbimpl_id, align 8, !tbaa !6
  %.not.i.i26 = icmp eq i64 %24, 0
  br i1 %.not.i.i26, label %.lr.ph.i.i25, label %rbimpl_intern_const.exit.i21, !llvm.loop !17

rbimpl_intern_const.exit.i21:                     ; preds = %.lr.ph.i.i25, %23
  %.lcssa.i.i22 = phi i64 [ %.pr.i.i19, %23 ], [ %24, %.lr.ph.i.i25 ]
  %25 = tail call i64 @rb_attr_get(i64 noundef %0, i64 noundef %.lcssa.i.i22) #10
  %26 = and i64 %25, 1
  %.not.i3.i23 = icmp eq i64 %26, 0
  br i1 %.not.i3.i23, label %29, label %27

27:                                               ; preds = %rbimpl_intern_const.exit.i21
  %28 = tail call i64 @rb_fix2int(i64 noundef %25) #10
  br label %ancillary_type.exit

29:                                               ; preds = %rbimpl_intern_const.exit.i21
  %30 = tail call i64 @rb_num2int(i64 noundef %25) #10
  br label %ancillary_type.exit

ancillary_type.exit:                              ; preds = %27, %29
  %.0.i.i24 = phi i64 [ %28, %27 ], [ %30, %29 ]
  %31 = trunc i64 %.0.i.i24 to i32
  %32 = icmp eq i32 %13, %31
  br i1 %32, label %34, label %33

33:                                               ; preds = %ancillary_type.exit, %ancillary_level.exit
  br label %34

34:                                               ; preds = %ancillary_type.exit, %33
  %.0 = phi i64 [ 0, %33 ], [ 20, %ancillary_type.exit ]
  ret i64 %.0
}